; Function Attrs: mustprogress nofree norecurse nosync nounwind memory(read, argmem: readwrite, inaccessiblemem: none) uwtable
define void @_Z20gmx_calc_com_f_blockPK10gmx_mtop_tPA3_fPK7t_blockPKiS3_(ptr noundef readnone captures(none) %0, ptr noundef readonly captures(none) %1, ptr noundef readonly captures(none) %2, ptr noundef readonly captures(none) %3, ptr noundef writeonly captures(none) %4) local_unnamed_addr #6 {
  %6 = load i32, ptr %2, align 8, !tbaa !68
  %7 = icmp sgt i32 %6, 0
  br i1 %7, label %.lr.ph27, label %._crit_edge28

.lr.ph27:                                         ; preds = %5
  %8 = getelementptr inbounds nuw i8, ptr %2, i64 8
  %9 = load ptr, ptr %8, align 8, !tbaa !70
  %wide.trip.count35 = zext nneg i32 %6 to i64
  %.pre = load i32, ptr %9, align 4, !tbaa !8
  br label %10

._crit_edge28:                                    ; preds = %._crit_edge, %5
  ret void

10:                                               ; preds = %.lr.ph27, %._crit_edge
  %11 = phi i32 [ %.pre, %.lr.ph27 ], [ %13, %._crit_edge ]
  %indvars.iv32 = phi i64 [ 0, %.lr.ph27 ], [ %indvars.iv.next33, %._crit_edge ]
  %indvars.iv.next33 = add nuw nsw i64 %indvars.iv32, 1
  %12 = getelementptr inbounds nuw i32, ptr %9, i64 %indvars.iv.next33
  %13 = load i32, ptr %12, align 4, !tbaa !8
  %14 = icmp slt i32 %11, %13
  br i1 %14, label %.lr.ph.preheader, label %._crit_edge

.lr.ph.preheader:                                 ; preds = %10
  %15 = sext i32 %11 to i64
  %wide.trip.count = sext i32 %13 to i64
  br label %.lr.ph

._crit_edge:                                      ; preds = %.lr.ph, %10
  %.sroa.10.0.lcssa = phi float [ 0.000000e+00, %10 ], [ %30, %.lr.ph ]
  %.sroa.6.0.lcssa = phi float [ 0.000000e+00, %10 ], [ %27, %.lr.ph ]
  %.sroa.0.0.lcssa = phi float [ 0.000000e+00, %10 ], [ %24, %.lr.ph ]
  %16 = getelementptr inbounds nuw [3 x float], ptr %4, i64 %indvars.iv32
  store float %.sroa.0.0.lcssa, ptr %16, align 4, !tbaa !4
  %17 = getelementptr inbounds nuw i8, ptr %16, i64 4
  store float %.sroa.6.0.lcssa, ptr %17, align 4, !tbaa !4
  %18 = getelementptr inbounds nuw i8, ptr %16, i64 8
  store float %.sroa.10.0.lcssa, ptr %18, align 4, !tbaa !4
  %exitcond36.not = icmp eq i64 %indvars.iv.next33, %wide.trip.count35
  br i1 %exitcond36.not, label %._crit_edge28, label %10, !llvm.loop !79

.lr.ph:                                           ; preds = %.lr.ph.preheader, %.lr.ph
  %indvars.iv = phi i64 [ %15, %.lr.ph.preheader ], [ %indvars.iv.next, %.lr.ph ]
  %.sroa.0.020 = phi float [ 0.000000e+00, %.lr.ph.preheader ], [ %24, %.lr.ph ]
  %.sroa.6.019 = phi float [ 0.000000e+00, %.lr.ph.preheader ], [ %27, %.lr.ph ]
  %.sroa.10.018 = phi float [ 0.000000e+00, %.lr.ph.preheader ], [ %30, %.lr.ph ]
  %19 = getelementptr inbounds i32, ptr %3, i64 %indvars.iv
  %20 = load i32, ptr %19, align 4, !tbaa !8
  %21 = sext i32 %20 to i64
  %22 = getelementptr inbounds [3 x float], ptr %1, i64 %21
  %23 = load float, ptr %22, align 4, !tbaa !4
  %24 = fadd float %.sroa.0.020, %23
  %25 = getelementptr inbounds nuw i8, ptr %22, i64 4
  %26 = load float, ptr %25, align 4, !tbaa !4
  %27 = fadd float %.sroa.6.019, %26
  %28 = getelementptr inbounds nuw i8, ptr %22, i64 8
  %29 = load float, ptr %28, align 4, !tbaa !4
  %30 = fadd float %.sroa.10.018, %29
  %indvars.iv.next = add nsw i64 %indvars.iv, 1
  %exitcond.not = icmp eq i64 %indvars.iv.next, %wide.trip.count
  br i1 %exitcond.not, label %._crit_edge, label %.lr.ph, !llvm.loop !80
}